target datalayout = "e-m:e-p270:32:32-p271:32:32-p272:64:64-i64:64-i128:128-f80:128-n8:16:32:64-S128"
target triple = "x86_64-pc-linux-gnu"

%"class.(anonymous namespace)::FunctionArgEnumerator" = type { %"class.llvm::pdb::IPDBEnumChildren.34", ptr, ptr, %"class.std::vector", %"class.__gnu_cxx::__normal_iterator" }
%"class.llvm::pdb::IPDBEnumChildren.34" = type { ptr }
%"class.std::vector" = type { %"struct.std::_Vector_base" }
%"struct.std::_Vector_base" = type { %"struct.std::_Vector_base<std::unique_ptr<llvm::pdb::PDBSymbolData>, std::allocator<std::unique_ptr<llvm::pdb::PDBSymbolData>>>::_Vector_impl" }
%"struct.std::_Vector_base<std::unique_ptr<llvm::pdb::PDBSymbolData>, std::allocator<std::unique_ptr<llvm::pdb::PDBSymbolData>>>::_Vector_impl" = type { %"struct.std::_Vector_base<std::unique_ptr<llvm::pdb::PDBSymbolData>, std::allocator<std::unique_ptr<llvm::pdb::PDBSymbolData>>>::_Vector_impl_data" }
%"struct.std::_Vector_base<std::unique_ptr<llvm::pdb::PDBSymbolData>, std::allocator<std::unique_ptr<llvm::pdb::PDBSymbolData>>>::_Vector_impl_data" = type { ptr, ptr, ptr }
%"class.__gnu_cxx::__normal_iterator" = type { ptr }

; Function Attrs: mustprogress nounwind uwtable
define linkonce_odr hidden noundef i64 @_ZNKSt6vectorISt10unique_ptrIN4llvm3pdb13PDBSymbolDataESt14default_deleteIS3_EESaIS6_EE4sizeEv(ptr noundef nonnull align 8 dereferenceable(24) %0) #0 comdat align 2 {
  %2 = alloca ptr, align 8
  store ptr %0, ptr %2, align 8
  %3 = load ptr, ptr %2, align 8
  %4 = getelementptr inbounds nuw %"struct.std::_Vector_base", ptr %3, i32 0, i32 0
  %5 = getelementptr inbounds nuw %"struct.std::_Vector_base<std::unique_ptr<llvm::pdb::PDBSymbolData>, std::allocator<std::unique_ptr<llvm::pdb::PDBSymbolData>>>::_Vector_impl_data", ptr %4, i32 0, i32 1
  %6 = load ptr, ptr %5, align 8
  %7 = getelementptr inbounds nuw %"struct.std::_Vector_base", ptr %3, i32 0, i32 0
  %8 = getelementptr inbounds nuw %"struct.std::_Vector_base<std::unique_ptr<llvm::pdb::PDBSymbolData>, std::allocator<std::unique_ptr<llvm::pdb::PDBSymbolData>>>::_Vector_impl_data", ptr %7, i32 0, i32 0
  %9 = load ptr, ptr %8, align 8
  %10 = ptrtoint ptr %6 to i64
  %11 = ptrtoint ptr %9 to i64
  %12 = sub i64 %10, %11
  %13 = sdiv exact i64 %12, 8
  ret i64 %13
}

; Function Attrs: mustprogress nounwind uwtable
define internal noundef i32 @_ZNK12_GLOBAL__N_121FunctionArgEnumerator13getChildCountEv(ptr noundef nonnull align 8 dereferenceable(56) %0) unnamed_addr #0 align 2 {
  %2 = alloca ptr, align 8
  store ptr %0, ptr %2, align 8
  %3 = load ptr, ptr %2, align 8
  %4 = getelementptr inbounds nuw %"class.(anonymous namespace)::FunctionArgEnumerator", ptr %3, i32 0, i32 3
  %5 = call noundef i64 @_ZNKSt6vectorISt10unique_ptrIN4llvm3pdb13PDBSymbolDataESt14default_deleteIS3_EESaIS6_EE4sizeEv(ptr noundef nonnull align 8 dereferenceable(24) %4) #9
  %6 = trunc i64 %5 to i32
  ret i32 %6
}